; Function Attrs: nounwind uwtable
define hidden void @zif_strtoupper(ptr noundef %0, ptr noundef writeonly captures(none) %1) local_unnamed_addr #0 {
  %3 = alloca ptr, align 8
  call void @llvm.lifetime.start.p0(i64 8, ptr nonnull %3) #28
  %4 = getelementptr inbounds nuw i8, ptr %0, i64 44
  %5 = load i32, ptr %4, align 4, !tbaa !10
  %cond = icmp eq i32 %5, 1
  br i1 %cond, label %6, label %.thread55, !prof !11

.thread55:                                        ; preds = %2
  tail call void @zend_wrong_parameters_count_error(i32 noundef 1, i32 noundef 1) #28
  br label %13

6:                                                ; preds = %2
  %7 = getelementptr inbounds nuw i8, ptr %0, i64 80
  %8 = getelementptr inbounds nuw i8, ptr %0, i64 88
  %9 = load i8, ptr %8, align 8, !tbaa !10
  %10 = icmp eq i8 %9, 6
  br i1 %10, label %.thread65, label %zend_parse_arg_str_ex.exit, !prof !12

.thread65:                                        ; preds = %6
  %11 = load ptr, ptr %7, align 8, !tbaa !10
  store ptr %11, ptr %3, align 8, !tbaa !13
  br label %.critedge

zend_parse_arg_str_ex.exit:                       ; preds = %6
  %12 = call zeroext i1 @zend_parse_arg_str_slow(ptr noundef nonnull %7, ptr noundef nonnull %3, i32 noundef 1) #28
  %cond.fr45 = freeze i1 %12
  br i1 %cond.fr45, label %zend_parse_arg_str_ex.exit..critedge_crit_edge, label %13, !prof !15

zend_parse_arg_str_ex.exit..critedge_crit_edge:   ; preds = %zend_parse_arg_str_ex.exit
  %.pre = load ptr, ptr %3, align 8, !tbaa !13
  br label %.critedge

13:                                               ; preds = %zend_parse_arg_str_ex.exit, %.thread55
  %.064 = phi i32 [ 0, %.thread55 ], [ 1, %zend_parse_arg_str_ex.exit ]
  %.03763 = phi i32 [ 1, %.thread55 ], [ 9, %zend_parse_arg_str_ex.exit ]
  %.03862 = phi ptr [ null, %.thread55 ], [ %7, %zend_parse_arg_str_ex.exit ]
  %.03961 = phi i32 [ 0, %.thread55 ], [ 4, %zend_parse_arg_str_ex.exit ]
  call void @zend_wrong_parameter_error(i32 noundef %.03763, i32 noundef %.064, ptr noundef null, i32 noundef %.03961, ptr noundef %.03862) #28
  br label %21

.critedge:                                        ; preds = %zend_parse_arg_str_ex.exit..critedge_crit_edge, %.thread65
  %14 = phi ptr [ %.pre, %zend_parse_arg_str_ex.exit..critedge_crit_edge ], [ %11, %.thread65 ]
  %15 = call ptr @zend_string_toupper_ex(ptr noundef %14, i1 noundef zeroext false) #28
  store ptr %15, ptr %1, align 8, !tbaa !10
  %16 = getelementptr inbounds nuw i8, ptr %15, i64 4
  %17 = load i32, ptr %16, align 4, !tbaa !10
  %18 = and i32 %17, 64
  %.not42 = icmp eq i32 %18, 0
  %19 = select i1 %.not42, i32 262, i32 6
  %20 = getelementptr inbounds nuw i8, ptr %1, i64 8
  store i32 %19, ptr %20, align 8, !tbaa !10
  br label %21

21:                                               ; preds = %13, %.critedge
  call void @llvm.lifetime.end.p0(i64 8, ptr nonnull %3) #28
  ret void
}